target datalayout = "e-m:e-p270:32:32-p271:32:32-p272:64:64-i64:64-i128:128-f80:128-n8:16:32:64-S128"
target triple = "x86_64-pc-linux-gnu"

%"class.std::__shared_count" = type { ptr }
%"class.std::shared_ptr.19" = type { %"class.std::__shared_ptr.20" }
%"class.std::__shared_ptr.20" = type { ptr, %"class.std::__shared_count" }
%"class.arrow::Status" = type { ptr }
%"class.std::unique_ptr.137" = type { %"struct.std::__uniq_ptr_data.138" }
%"struct.std::__uniq_ptr_data.138" = type { %"class.std::__uniq_ptr_impl.139" }
%"class.std::__uniq_ptr_impl.139" = type { %"class.std::tuple.140" }
%"class.std::tuple.140" = type { %"struct.std::_Tuple_impl.141" }
%"struct.std::_Tuple_impl.141" = type { %"struct.std::_Head_base.144" }
%"struct.std::_Head_base.144" = type { ptr }
%"class.std::shared_ptr.145" = type { %"class.std::__shared_ptr.146" }
%"class.std::__shared_ptr.146" = type { ptr, %"class.std::__shared_count" }
%"class.arrow::compute::internal::(anonymous namespace)::HashKernel" = type { %"struct.arrow::compute::KernelState", ptr, %"class.std::mutex" }
%"struct.arrow::compute::KernelState" = type { ptr }
%"class.std::mutex" = type { %"class.std::__mutex_base" }
%"class.std::__mutex_base" = type { %union.pthread_mutex_t }
%union.pthread_mutex_t = type { %struct.__pthread_mutex_s }
%struct.__pthread_mutex_s = type { i32, i32, i32, i32, i32, i16, i16, %struct.__pthread_internal_list }
%struct.__pthread_internal_list = type { ptr, ptr }
%"class.arrow::compute::internal::(anonymous namespace)::DictionaryHashKernel" = type { %"class.arrow::compute::internal::(anonymous namespace)::HashKernel", %"class.std::unique_ptr.137", %"class.std::shared_ptr.145", %"class.std::shared_ptr.19", %"class.std::unique_ptr.148" }
%"class.std::unique_ptr.148" = type { %"struct.std::__uniq_ptr_data.149" }
%"struct.std::__uniq_ptr_data.149" = type { %"class.std::__uniq_ptr_impl.150" }
%"class.std::__uniq_ptr_impl.150" = type { %"class.std::tuple.151" }
%"class.std::tuple.151" = type { %"struct.std::_Tuple_impl.152" }
%"struct.std::_Tuple_impl.152" = type { %"struct.std::_Head_base.155" }
%"struct.std::_Head_base.155" = type { ptr }

; Function Attrs: mustprogress nounwind uwtable
define internal noundef nonnull align 8 dereferenceable(8) ptr @_ZNSt10_Head_baseILm0EPN5arrow7compute8internal12_GLOBAL__N_110HashKernelELb0EE7_M_headERKS6_(ptr noundef nonnull align 8 dereferenceable(8) %0) #0 align 2 {
  %2 = alloca ptr, align 8
  store ptr %0, ptr %2, align 8, !tbaa !2392
  %3 = load ptr, ptr %2, align 8, !tbaa !2392
  %4 = getelementptr inbounds nuw %"struct.std::_Head_base.144", ptr %3, i32 0, i32 0
  ret ptr %4
}

; Function Attrs: mustprogress nounwind uwtable
define internal noundef nonnull align 8 dereferenceable(8) ptr @_ZNSt11_Tuple_implILm0EJPN5arrow7compute8internal12_GLOBAL__N_110HashKernelESt14default_deleteIS4_EEE7_M_headERKS8_(ptr noundef nonnull align 8 dereferenceable(8) %0) #0 align 2 {
  %2 = alloca ptr, align 8
  store ptr %0, ptr %2, align 8, !tbaa !2387
  %3 = load ptr, ptr %2, align 8, !tbaa !2387
  %4 = call noundef nonnull align 8 dereferenceable(8) ptr @_ZNSt10_Head_baseILm0EPN5arrow7compute8internal12_GLOBAL__N_110HashKernelELb0EE7_M_headERKS6_(ptr noundef nonnull align 8 dereferenceable(8) %3) #5
  ret ptr %4
}

; Function Attrs: mustprogress nounwind uwtable
define internal noundef nonnull align 8 dereferenceable(8) ptr @_ZSt12__get_helperILm0EPN5arrow7compute8internal12_GLOBAL__N_110HashKernelEJSt14default_deleteIS4_EEERKT0_RKSt11_Tuple_implIXT_EJS8_DpT1_EE(ptr noundef nonnull align 8 dereferenceable(8) %0) #0 {
  %2 = alloca ptr, align 8
  store ptr %0, ptr %2, align 8, !tbaa !2387
  %3 = load ptr, ptr %2, align 8, !tbaa !2387
  %4 = call noundef nonnull align 8 dereferenceable(8) ptr @_ZNSt11_Tuple_implILm0EJPN5arrow7compute8internal12_GLOBAL__N_110HashKernelESt14default_deleteIS4_EEE7_M_headERKS8_(ptr noundef nonnull align 8 dereferenceable(8) %3) #5
  ret ptr %4
}

; Function Attrs: mustprogress nounwind uwtable
define internal noundef nonnull align 8 dereferenceable(8) ptr @_ZSt3getILm0EJPN5arrow7compute8internal12_GLOBAL__N_110HashKernelESt14default_deleteIS4_EEERKNSt13tuple_elementIXT_ESt5tupleIJDpT0_EEE4typeERKSC_(ptr noundef nonnull align 8 dereferenceable(8) %0) #0 {
  %2 = alloca ptr, align 8
  store ptr %0, ptr %2, align 8, !tbaa !2385
  %3 = load ptr, ptr %2, align 8, !tbaa !2385
  %4 = call noundef nonnull align 8 dereferenceable(8) ptr @_ZSt12__get_helperILm0EPN5arrow7compute8internal12_GLOBAL__N_110HashKernelEJSt14default_deleteIS4_EEERKT0_RKSt11_Tuple_implIXT_EJS8_DpT1_EE(ptr noundef nonnull align 8 dereferenceable(8) %3) #5
  ret ptr %4
}

; Function Attrs: mustprogress nounwind uwtable
define internal noundef ptr @_ZNKSt15__uniq_ptr_implIN5arrow7compute8internal12_GLOBAL__N_110HashKernelESt14default_deleteIS4_EE6_M_ptrEv(ptr noundef nonnull align 8 dereferenceable(8) %0) #0 align 2 {
  %2 = alloca ptr, align 8
  store ptr %0, ptr %2, align 8, !tbaa !2383
  %3 = load ptr, ptr %2, align 8
  %4 = getelementptr inbounds nuw %"class.std::__uniq_ptr_impl.139", ptr %3, i32 0, i32 0
  %5 = call noundef nonnull align 8 dereferenceable(8) ptr @_ZSt3getILm0EJPN5arrow7compute8internal12_GLOBAL__N_110HashKernelESt14default_deleteIS4_EEERKNSt13tuple_elementIXT_ESt5tupleIJDpT0_EEE4typeERKSC_(ptr noundef nonnull align 8 dereferenceable(8) %4) #5
  %6 = load ptr, ptr %5, align 8, !tbaa !129
  ret ptr %6
}

; Function Attrs: mustprogress nounwind uwtable
define internal noundef ptr @_ZNKSt10unique_ptrIN5arrow7compute8internal12_GLOBAL__N_110HashKernelESt14default_deleteIS4_EE3getEv(ptr noundef nonnull align 8 dereferenceable(8) %0) #0 align 2 {
  %2 = alloca ptr, align 8
  store ptr %0, ptr %2, align 8, !tbaa !2373
  %3 = load ptr, ptr %2, align 8
  %4 = getelementptr inbounds nuw %"class.std::unique_ptr.137", ptr %3, i32 0, i32 0
  %5 = call noundef ptr @_ZNKSt15__uniq_ptr_implIN5arrow7compute8internal12_GLOBAL__N_110HashKernelESt14default_deleteIS4_EE6_M_ptrEv(ptr noundef nonnull align 8 dereferenceable(8) %4) #5
  ret ptr %5
}

; Function Attrs: mustprogress nounwind uwtable
define internal noundef ptr @_ZNKSt10unique_ptrIN5arrow7compute8internal12_GLOBAL__N_110HashKernelESt14default_deleteIS4_EEptEv(ptr noundef nonnull align 8 dereferenceable(8) %0) #0 align 2 {
  %2 = alloca ptr, align 8
  store ptr %0, ptr %2, align 8, !tbaa !2373
  %3 = load ptr, ptr %2, align 8
  %4 = call noundef ptr @_ZNKSt10unique_ptrIN5arrow7compute8internal12_GLOBAL__N_110HashKernelESt14default_deleteIS4_EE3getEv(ptr noundef nonnull align 8 dereferenceable(8) %3) #5
  ret ptr %4
}

; Function Attrs: mustprogress uwtable
define internal void @_ZN5arrow7compute8internal12_GLOBAL__N_120DictionaryHashKernel10FlushFinalEPNS0_10ExecResultE(ptr dead_on_unwind noalias writable sret(%"class.arrow::Status") align 8 %0, ptr noundef nonnull align 8 dereferenceable(104) %1, ptr noundef %2) unnamed_addr #3 align 2 {
  %4 = alloca ptr, align 8
  %5 = alloca ptr, align 8
  %6 = alloca ptr, align 8
  store ptr %0, ptr %4, align 8
  store ptr %1, ptr %5, align 8, !tbaa !192
  store ptr %2, ptr %6, align 8, !tbaa !126
  %7 = load ptr, ptr %5, align 8
  %8 = getelementptr inbounds nuw %"class.arrow::compute::internal::(anonymous namespace)::DictionaryHashKernel", ptr %7, i32 0, i32 1
  %9 = call noundef ptr @_ZNKSt10unique_ptrIN5arrow7compute8internal12_GLOBAL__N_110HashKernelESt14default_deleteIS4_EEptEv(ptr noundef nonnull align 8 dereferenceable(8) %8) #5
  %10 = load ptr, ptr %6, align 8, !tbaa !126
  %11 = load ptr, ptr %9, align 8, !tbaa !131
  %12 = getelementptr inbounds ptr, ptr %11, i64 4
  %13 = load ptr, ptr %12, align 8
  call void %13(ptr dead_on_unwind writable sret(%"class.arrow::Status") align 8 %0, ptr noundef nonnull align 8 dereferenceable(56) %9, ptr noundef %10)
  ret void
}