; Function Attrs: mustprogress uwtable
define internal void @_ZN5arrow7compute8internal12_GLOBAL__N_120DictionaryHashKernel10FlushFinalEPNS0_10ExecResultE(ptr dead_on_unwind noalias writable sret(%"class.arrow::Status") align 8 %0, ptr noundef nonnull readonly align 8 captures(none) dereferenceable(104) %1, ptr noundef %2) unnamed_addr #2 align 2 {
  %4 = getelementptr inbounds nuw i8, ptr %1, i64 56
  %.val = load ptr, ptr %4, align 8, !tbaa !245
  %5 = load ptr, ptr %.val, align 8, !tbaa !79
  %6 = getelementptr inbounds nuw i8, ptr %5, i64 32
  %7 = load ptr, ptr %6, align 8
  tail call void %7(ptr dead_on_unwind writable sret(%"class.arrow::Status") align 8 %0, ptr noundef nonnull align 8 dereferenceable(56) %.val, ptr noundef %2)
  ret void
}